target datalayout = "e-m:e-p270:32:32-p271:32:32-p272:64:64-i64:64-i128:128-f80:128-n8:16:32:64-S128"
target triple = "x86_64-pc-linux-gnu"

@.str.2 = private unnamed_addr constant [100 x i8] c"generated/home/dtcxzyw/WorkSpace/Projects/compilers/llvm-opt-benchmark/bench/hdf5/hdf5/src/H5Fint.c\00", align 1
@H5E_FILE_g = external global i64, align 8
@H5E_CANTCLOSEFILE_g = external global i64, align 8
@.str.74 = private unnamed_addr constant [21 x i8] c"unable to close file\00", align 1
@H5E_CANTDEC_g = external global i64, align 8
@H5P_LST_DATASET_XFER_ID_g = external global i64, align 8
@__func__.H5F__close_cb = private unnamed_addr constant [14 x i8] c"H5F__close_cb\00", align 1
@.str.182 = private unnamed_addr constant [26 x i8] c"unable to free VOL object\00", align 1

; Function Attrs: nounwind uwtable
define internal i32 @H5F__close_cb(ptr noundef %0, ptr noundef %1) #0 {
  %3 = alloca ptr, align 8
  %4 = alloca ptr, align 8
  %5 = alloca i32, align 4
  %6 = alloca i8, align 1
  store ptr %0, ptr %3, align 8
  store ptr %1, ptr %4, align 8
  store i32 0, ptr %5, align 4
  store i8 0, ptr %6, align 1
  %7 = load ptr, ptr %3, align 8
  %8 = load i64, ptr @H5P_LST_DATASET_XFER_ID_g, align 8
  %9 = load ptr, ptr %4, align 8
  %10 = call i32 @H5VL_file_close(ptr noundef %7, i64 noundef %8, ptr noundef %9)
  %11 = icmp slt i32 %10, 0
  br i1 %11, label %12, label %27

12:                                               ; preds = %2
  br label %13

13:                                               ; preds = %12
  br label %14

14:                                               ; preds = %13
  br label %15

15:                                               ; preds = %14
  %16 = load i64, ptr @H5E_FILE_g, align 8
  %17 = load i64, ptr @H5E_CANTCLOSEFILE_g, align 8
  %18 = call i32 (ptr, ptr, i32, i64, i64, ptr, ...) @H5E_printf_stack(ptr noundef @.str.2, ptr noundef @__func__.H5F__close_cb, i32 noundef 218, i64 noundef %16, i64 noundef %17, ptr noundef @.str.74)
  br label %19

19:                                               ; preds = %15
  store i8 1, ptr %6, align 1
  %20 = load i8, ptr %6, align 1
  %21 = trunc i8 %20 to i1
  %22 = zext i1 %21 to i8
  store i8 %22, ptr %6, align 1
  br label %23

23:                                               ; preds = %19
  br label %24

24:                                               ; preds = %23
  store i32 -1, ptr %5, align 4
  br label %47

25:                                               ; No predecessors!
  br label %26

26:                                               ; preds = %25
  br label %27

27:                                               ; preds = %26, %2
  %28 = load ptr, ptr %3, align 8
  %29 = call i32 @H5VL_free_object(ptr noundef %28)
  %30 = icmp slt i32 %29, 0
  br i1 %30, label %31, label %46

31:                                               ; preds = %27
  br label %32

32:                                               ; preds = %31
  br label %33

33:                                               ; preds = %32
  br label %34

34:                                               ; preds = %33
  %35 = load i64, ptr @H5E_FILE_g, align 8
  %36 = load i64, ptr @H5E_CANTDEC_g, align 8
  %37 = call i32 (ptr, ptr, i32, i64, i64, ptr, ...) @H5E_printf_stack(ptr noundef @.str.2, ptr noundef @__func__.H5F__close_cb, i32 noundef 223, i64 noundef %35, i64 noundef %36, ptr noundef @.str.182)
  br label %38

38:                                               ; preds = %34
  store i8 1, ptr %6, align 1
  %39 = load i8, ptr %6, align 1
  %40 = trunc i8 %39 to i1
  %41 = zext i1 %40 to i8
  store i8 %41, ptr %6, align 1
  br label %42

42:                                               ; preds = %38
  br label %43

43:                                               ; preds = %42
  store i32 -1, ptr %5, align 4
  br label %47

44:                                               ; No predecessors!
  br label %45

45:                                               ; preds = %44
  br label %46

46:                                               ; preds = %45, %27
  br label %47

47:                                               ; preds = %46, %43, %24
  %48 = load i32, ptr %5, align 4
  ret i32 %48
}